;--------------------------------------------------------
; File Created by SDCC : free open source ANSI-C Compiler
; Version 4.0.3 #11868 (Mac OS X x86_64)
;--------------------------------------------------------
	.module main
	.optsdcc -mgbz80
	
;--------------------------------------------------------
; Public variables in this module
;--------------------------------------------------------
	.globl _main
	.globl _joypad
	.globl _delay
;--------------------------------------------------------
; special function registers
;--------------------------------------------------------
;--------------------------------------------------------
; ram data
;--------------------------------------------------------
	.area _DATA
;--------------------------------------------------------
; absolute external ram data
;--------------------------------------------------------
	.area _DABS (ABS)
;--------------------------------------------------------
; global & static initialisations
;--------------------------------------------------------
	.area _HOME
	.area _GSINIT
	.area _GSFINAL
	.area _GSINIT
;--------------------------------------------------------
; Home
;--------------------------------------------------------
	.area _HOME
	.area _HOME
;--------------------------------------------------------
; code
;--------------------------------------------------------
	.area _CODE
;main.c:4: void main(){
;	---------------------------------
; Function main
; ---------------------------------
_main::
;main.c:6: NR52_REG = 0x80; // is 1000 0000 in binary and turns on sound
	ld	a, #0x80
	ldh	(_NR52_REG+0),a
;main.c:7: NR50_REG = 0x77; // sets the volume for both left and right channel just set to max 0x77
	ld	a, #0x77
	ldh	(_NR50_REG+0),a
;main.c:8: NR51_REG = 0xFF; // is 1111 1111 in binary, select which chanels we want to use in this case all of them. One bit for the L one bit for the R of all four channels
	ld	a, #0xff
	ldh	(_NR51_REG+0),a
;main.c:11: while(1) {
00104$:
;main.c:12: UBYTE joypad_state = joypad();
	call	_joypad
	ld	a, e
;main.c:14: if(joypad_state) {   
	or	a, a
	jr	Z, 00104$
;main.c:22: NR10_REG = 0x13; 
	ld	a, #0x13
	ldh	(_NR10_REG+0),a
;main.c:29: NR11_REG = 0x40;
	ld	a, #0x40
	ldh	(_NR11_REG+0),a
;main.c:38: NR12_REG = 0x73;  
	ld	a, #0x73
	ldh	(_NR12_REG+0),a
;main.c:43: NR13_REG = 0x00;   
	ld	a, #0x00
	ldh	(_NR13_REG+0),a
;main.c:52: NR14_REG = 0xC3;	    
	ld	a, #0xc3
	ldh	(_NR14_REG+0),a
;main.c:54: delay(1000);
	ld	hl, #0x03e8
	push	hl
	call	_delay
	add	sp, #2
;main.c:57: }
	jr	00104$
	.area _CODE
	.area _CABS (ABS)
